; ModuleID = '4/1421.c'
source_filename = "4/1421.c"
target datalayout = "e-m:e-p270:32:32-p271:32:32-p272:64:64-i64:64-f80:128-n8:16:32:64-S128"
target triple = "x86_64-pc-linux-gnu"

@.str = private unnamed_addr constant [5 x i8] c"%d%d\00", align 1
@.str.1 = private unnamed_addr constant [3 x i8] c"%d\00", align 1
@.str.2 = private unnamed_addr constant [4 x i8] c"%d\0A\00", align 1

; Function Attrs: noinline nounwind uwtable
define dso_local i32 @main() #0 {
  %1 = alloca i32, align 4
  %2 = alloca i32, align 4
  %3 = alloca i32, align 4
  %4 = alloca i32, align 4
  %5 = alloca i32, align 4
  %6 = alloca i32, align 4
  %7 = alloca [100 x [100 x i32]], align 16
  store i32 0, i32* %1, align 4
  %8 = call i32 (i8*, ...) @__isoc99_scanf(i8* getelementptr inbounds ([5 x i8], [5 x i8]* @.str, i64 0, i64 0), i32* %4, i32* %5)
  store i32 0, i32* %2, align 4
  br label %9

9:                                                ; preds = %30, %0
  %10 = load i32, i32* %2, align 4
  %11 = load i32, i32* %4, align 4
  %12 = icmp slt i32 %10, %11
  br i1 %12, label %13, label %33

13:                                               ; preds = %9
  store i32 0, i32* %3, align 4
  br label %14

14:                                               ; preds = %26, %13
  %15 = load i32, i32* %3, align 4
  %16 = load i32, i32* %5, align 4
  %17 = icmp slt i32 %15, %16
  br i1 %17, label %18, label %29

18:                                               ; preds = %14
  %19 = load i32, i32* %2, align 4
  %20 = sext i32 %19 to i64
  %21 = getelementptr inbounds [100 x [100 x i32]], [100 x [100 x i32]]* %7, i64 0, i64 %20
  %22 = load i32, i32* %3, align 4
  %23 = sext i32 %22 to i64
  %24 = getelementptr inbounds [100 x i32], [100 x i32]* %21, i64 0, i64 %23
  %25 = call i32 (i8*, ...) @__isoc99_scanf(i8* getelementptr inbounds ([3 x i8], [3 x i8]* @.str.1, i64 0, i64 0), i32* %24)
  br label %26

26:                                               ; preds = %18
  %27 = load i32, i32* %3, align 4
  %28 = add nsw i32 %27, 1
  store i32 %28, i32* %3, align 4
  br label %14

29:                                               ; preds = %14
  br label %30

30:                                               ; preds = %29
  %31 = load i32, i32* %2, align 4
  %32 = add nsw i32 %31, 1
  store i32 %32, i32* %2, align 4
  br label %9

33:                                               ; preds = %9
  %34 = load i32, i32* %4, align 4
  %35 = load i32, i32* %5, align 4
  %36 = icmp sgt i32 %34, %35
  br i1 %36, label %37, label %117

37:                                               ; preds = %33
  store i32 0, i32* %6, align 4
  br label %38

38:                                               ; preds = %73, %37
  %39 = load i32, i32* %6, align 4
  %40 = load i32, i32* %5, align 4
  %41 = icmp slt i32 %39, %40
  br i1 %41, label %42, label %76

42:                                               ; preds = %38
  store i32 0, i32* %2, align 4
  br label %43

43:                                               ; preds = %69, %42
  %44 = load i32, i32* %2, align 4
  %45 = load i32, i32* %5, align 4
  %46 = icmp slt i32 %44, %45
  br i1 %46, label %47, label %72

47:                                               ; preds = %43
  %48 = load i32, i32* %6, align 4
  %49 = load i32, i32* %2, align 4
  %50 = sub nsw i32 %48, %49
  %51 = icmp sgt i32 %50, 0
  br i1 %51, label %57, label %52

52:                                               ; preds = %47
  %53 = load i32, i32* %6, align 4
  %54 = load i32, i32* %2, align 4
  %55 = sub nsw i32 %53, %54
  %56 = icmp eq i32 %55, 0
  br i1 %56, label %57, label %68

57:                                               ; preds = %52, %47
  %58 = load i32, i32* %2, align 4
  %59 = sext i32 %58 to i64
  %60 = getelementptr inbounds [100 x [100 x i32]], [100 x [100 x i32]]* %7, i64 0, i64 %59
  %61 = load i32, i32* %6, align 4
  %62 = load i32, i32* %2, align 4
  %63 = sub nsw i32 %61, %62
  %64 = sext i32 %63 to i64
  %65 = getelementptr inbounds [100 x i32], [100 x i32]* %60, i64 0, i64 %64
  %66 = load i32, i32* %65, align 4
  %67 = call i32 (i8*, ...) @printf(i8* getelementptr inbounds ([4 x i8], [4 x i8]* @.str.2, i64 0, i64 0), i32 %66)
  br label %68

68:                                               ; preds = %57, %52
  br label %69

69:                                               ; preds = %68
  %70 = load i32, i32* %2, align 4
  %71 = add nsw i32 %70, 1
  store i32 %71, i32* %2, align 4
  br label %43

72:                                               ; preds = %43
  br label %73

73:                                               ; preds = %72
  %74 = load i32, i32* %6, align 4
  %75 = add nsw i32 %74, 1
  store i32 %75, i32* %6, align 4
  br label %38

76:                                               ; preds = %38
  %77 = load i32, i32* %5, align 4
  store i32 %77, i32* %6, align 4
  br label %78

78:                                               ; preds = %113, %76
  %79 = load i32, i32* %6, align 4
  %80 = load i32, i32* %5, align 4
  %81 = load i32, i32* %4, align 4
  %82 = add nsw i32 %80, %81
  %83 = sub nsw i32 %82, 1
  %84 = icmp slt i32 %79, %83
  br i1 %84, label %85, label %116

85:                                               ; preds = %78
  %86 = load i32, i32* %5, align 4
  %87 = sub nsw i32 %86, 1
  store i32 %87, i32* %3, align 4
  br label %88

88:                                               ; preds = %109, %85
  %89 = load i32, i32* %3, align 4
  %90 = icmp sge i32 %89, 0
  br i1 %90, label %91, label %112

91:                                               ; preds = %88
  %92 = load i32, i32* %6, align 4
  %93 = load i32, i32* %3, align 4
  %94 = sub nsw i32 %92, %93
  %95 = load i32, i32* %4, align 4
  %96 = icmp slt i32 %94, %95
  br i1 %96, label %97, label %108

97:                                               ; preds = %91
  %98 = load i32, i32* %6, align 4
  %99 = load i32, i32* %3, align 4
  %100 = sub nsw i32 %98, %99
  %101 = sext i32 %100 to i64
  %102 = getelementptr inbounds [100 x [100 x i32]], [100 x [100 x i32]]* %7, i64 0, i64 %101
  %103 = load i32, i32* %3, align 4
  %104 = sext i32 %103 to i64
  %105 = getelementptr inbounds [100 x i32], [100 x i32]* %102, i64 0, i64 %104
  %106 = load i32, i32* %105, align 4
  %107 = call i32 (i8*, ...) @printf(i8* getelementptr inbounds ([4 x i8], [4 x i8]* @.str.2, i64 0, i64 0), i32 %106)
  br label %108

108:                                              ; preds = %97, %91
  br label %109

109:                                              ; preds = %108
  %110 = load i32, i32* %3, align 4
  %111 = add nsw i32 %110, -1
  store i32 %111, i32* %3, align 4
  br label %88

112:                                              ; preds = %88
  br label %113

113:                                              ; preds = %112
  %114 = load i32, i32* %6, align 4
  %115 = add nsw i32 %114, 1
  store i32 %115, i32* %6, align 4
  br label %78

116:                                              ; preds = %78
  br label %193

117:                                              ; preds = %33
  store i32 0, i32* %6, align 4
  br label %118

118:                                              ; preds = %153, %117
  %119 = load i32, i32* %6, align 4
  %120 = load i32, i32* %5, align 4
  %121 = icmp slt i32 %119, %120
  br i1 %121, label %122, label %156

122:                                              ; preds = %118
  store i32 0, i32* %2, align 4
  br label %123

123:                                              ; preds = %149, %122
  %124 = load i32, i32* %2, align 4
  %125 = load i32, i32* %4, align 4
  %126 = icmp slt i32 %124, %125
  br i1 %126, label %127, label %152

127:                                              ; preds = %123
  %128 = load i32, i32* %6, align 4
  %129 = load i32, i32* %2, align 4
  %130 = sub nsw i32 %128, %129
  %131 = icmp sgt i32 %130, 0
  br i1 %131, label %137, label %132

132:                                              ; preds = %127
  %133 = load i32, i32* %6, align 4
  %134 = load i32, i32* %2, align 4
  %135 = sub nsw i32 %133, %134
  %136 = icmp eq i32 %135, 0
  br i1 %136, label %137, label %148

137:                                              ; preds = %132, %127
  %138 = load i32, i32* %2, align 4
  %139 = sext i32 %138 to i64
  %140 = getelementptr inbounds [100 x [100 x i32]], [100 x [100 x i32]]* %7, i64 0, i64 %139
  %141 = load i32, i32* %6, align 4
  %142 = load i32, i32* %2, align 4
  %143 = sub nsw i32 %141, %142
  %144 = sext i32 %143 to i64
  %145 = getelementptr inbounds [100 x i32], [100 x i32]* %140, i64 0, i64 %144
  %146 = load i32, i32* %145, align 4
  %147 = call i32 (i8*, ...) @printf(i8* getelementptr inbounds ([4 x i8], [4 x i8]* @.str.2, i64 0, i64 0), i32 %146)
  br label %148

148:                                              ; preds = %137, %132
  br label %149

149:                                              ; preds = %148
  %150 = load i32, i32* %2, align 4
  %151 = add nsw i32 %150, 1
  store i32 %151, i32* %2, align 4
  br label %123

152:                                              ; preds = %123
  br label %153

153:                                              ; preds = %152
  %154 = load i32, i32* %6, align 4
  %155 = add nsw i32 %154, 1
  store i32 %155, i32* %6, align 4
  br label %118

156:                                              ; preds = %118
  %157 = load i32, i32* %5, align 4
  store i32 %157, i32* %6, align 4
  br label %158

158:                                              ; preds = %189, %156
  %159 = load i32, i32* %6, align 4
  %160 = load i32, i32* %5, align 4
  %161 = load i32, i32* %4, align 4
  %162 = add nsw i32 %160, %161
  %163 = sub nsw i32 %162, 1
  %164 = icmp slt i32 %159, %163
  br i1 %164, label %165, label %192

165:                                              ; preds = %158
  %166 = load i32, i32* %5, align 4
  %167 = sub nsw i32 %166, 1
  store i32 %167, i32* %3, align 4
  br label %168

168:                                              ; preds = %185, %165
  %169 = load i32, i32* %6, align 4
  %170 = load i32, i32* %3, align 4
  %171 = sub nsw i32 %169, %170
  %172 = load i32, i32* %4, align 4
  %173 = icmp slt i32 %171, %172
  br i1 %173, label %174, label %188

174:                                              ; preds = %168
  %175 = load i32, i32* %6, align 4
  %176 = load i32, i32* %3, align 4
  %177 = sub nsw i32 %175, %176
  %178 = sext i32 %177 to i64
  %179 = getelementptr inbounds [100 x [100 x i32]], [100 x [100 x i32]]* %7, i64 0, i64 %178
  %180 = load i32, i32* %3, align 4
  %181 = sext i32 %180 to i64
  %182 = getelementptr inbounds [100 x i32], [100 x i32]* %179, i64 0, i64 %181
  %183 = load i32, i32* %182, align 4
  %184 = call i32 (i8*, ...) @printf(i8* getelementptr inbounds ([4 x i8], [4 x i8]* @.str.2, i64 0, i64 0), i32 %183)
  br label %185

185:                                              ; preds = %174
  %186 = load i32, i32* %3, align 4
  %187 = add nsw i32 %186, -1
  store i32 %187, i32* %3, align 4
  br label %168

188:                                              ; preds = %168
  br label %189

189:                                              ; preds = %188
  %190 = load i32, i32* %6, align 4
  %191 = add nsw i32 %190, 1
  store i32 %191, i32* %6, align 4
  br label %158

192:                                              ; preds = %158
  br label %193

193:                                              ; preds = %192, %116
  ret i32 0
}

declare dso_local i32 @__isoc99_scanf(i8*, ...) #1

declare dso_local i32 @printf(i8*, ...) #1


!llvm.module.flags = !{!0}
!llvm.ident = !{!1}

!0 = !{i32 1, !"wchar_size", i32 4}
!1 = !{!"clang version 10.0.0-4ubuntu1 "}
